; Function Attrs: mustprogress uwtable
define void @_ZN6casadi6MatrixIdE3invERKS1_RKNSt7__cxx1112basic_stringIcSt11char_traitsIcESaIcEEERKSt3mapIS9_NS_11GenericTypeESt4lessIS9_ESaISt4pairISA_SD_EEE(ptr dead_on_unwind noalias writable sret(%"class.casadi::Matrix") align 8 %0, ptr noundef nonnull align 8 dereferenceable(40) %1, ptr noundef nonnull align 8 dereferenceable(32) %2, ptr noundef nonnull align 8 dereferenceable(48) %3) local_unnamed_addr #4 align 2 personality ptr @__gxx_personality_v0 {
  %5 = alloca double, align 8
  %6 = alloca %"class.casadi::Sparsity", align 8
  %7 = alloca %"class.casadi::Matrix", align 8
  call void @llvm.lifetime.start.p0(i64 40, ptr nonnull %7) #31
  %8 = getelementptr inbounds nuw i8, ptr %1, i64 8
  %9 = tail call noundef i64 @_ZNK6casadi8Sparsity5size1Ev(ptr noundef nonnull align 8 dereferenceable(8) %8)
  call void @llvm.lifetime.start.p0(i64 8, ptr nonnull %6) #31, !noalias !1695
  call void @_ZN6casadi8Sparsity4diagExx(ptr dead_on_unwind nonnull writable sret(%"class.casadi::Sparsity") align 8 %6, i64 noundef %9, i64 noundef %9), !noalias !1695
  call void @llvm.lifetime.start.p0(i64 8, ptr nonnull %5) #31, !noalias !1698
  store double 1.000000e+00, ptr %5, align 8, !tbaa !3, !noalias !1698
  invoke void @_ZN6casadi6MatrixIdEC1ERKNS_8SparsityERKdb(ptr noundef nonnull align 8 dereferenceable(40) %7, ptr noundef nonnull align 8 dereferenceable(8) %6, ptr noundef nonnull align 8 dereferenceable(8) %5, i1 noundef zeroext false)
          to label %10 unwind label %14

10:                                               ; preds = %4
  call void @llvm.lifetime.end.p0(i64 8, ptr nonnull %5) #31, !noalias !1698
  invoke void @_ZN6casadi13GenericSharedINS_12SharedObjectENS_20SharedObjectInternalEE10count_downEv(ptr noundef nonnull align 8 dereferenceable(8) %6)
          to label %_ZN6casadi6MatrixIdE3eyeEx.exit unwind label %11

11:                                               ; preds = %10
  %12 = landingpad { ptr, i32 }
          catch ptr null
  %13 = extractvalue { ptr, i32 } %12, 0
  call void @__clang_call_terminate(ptr %13) #29
  unreachable

14:                                               ; preds = %4
  %15 = landingpad { ptr, i32 }
          cleanup
  invoke void @_ZN6casadi13GenericSharedINS_12SharedObjectENS_20SharedObjectInternalEE10count_downEv(ptr noundef nonnull align 8 dereferenceable(8) %6)
          to label %_ZN6casadi13GenericSharedINS_12SharedObjectENS_20SharedObjectInternalEED2Ev.exit2.i unwind label %16

16:                                               ; preds = %14
  %17 = landingpad { ptr, i32 }
          catch ptr null
  %18 = extractvalue { ptr, i32 } %17, 0
  call void @__clang_call_terminate(ptr %18) #29
  unreachable

common.resume:                                    ; preds = %32, %_ZN6casadi13GenericSharedINS_12SharedObjectENS_20SharedObjectInternalEED2Ev.exit2.i
  %common.resume.op = phi { ptr, i32 } [ %15, %_ZN6casadi13GenericSharedINS_12SharedObjectENS_20SharedObjectInternalEED2Ev.exit2.i ], [ %33, %32 ]
  resume { ptr, i32 } %common.resume.op

_ZN6casadi13GenericSharedINS_12SharedObjectENS_20SharedObjectInternalEED2Ev.exit2.i: ; preds = %14
  call void @llvm.lifetime.end.p0(i64 8, ptr nonnull %6) #31, !noalias !1695
  br label %common.resume

_ZN6casadi6MatrixIdE3eyeEx.exit:                  ; preds = %10
  call void @llvm.lifetime.end.p0(i64 8, ptr nonnull %6) #31, !noalias !1695
  invoke void @_ZN6casadi6MatrixIdE5solveERKS1_S3_RKNSt7__cxx1112basic_stringIcSt11char_traitsIcESaIcEEERKSt3mapIS9_NS_11GenericTypeESt4lessIS9_ESaISt4pairISA_SD_EEE(ptr dead_on_unwind writable sret(%"class.casadi::Matrix") align 8 %0, ptr noundef nonnull align 8 dereferenceable(40) %1, ptr noundef nonnull align 8 dereferenceable(40) %7, ptr noundef nonnull align 8 dereferenceable(32) %2, ptr noundef nonnull align 8 dereferenceable(48) %3)
          to label %19 unwind label %32

19:                                               ; preds = %_ZN6casadi6MatrixIdE3eyeEx.exit
  %20 = getelementptr inbounds nuw i8, ptr %7, i64 16
  %21 = load ptr, ptr %20, align 8, !tbaa !14
  %.not.i.i.i.i = icmp eq ptr %21, null
  br i1 %.not.i.i.i.i, label %_ZNSt6vectorIdSaIdEED2Ev.exit.i, label %22

22:                                               ; preds = %19
  %23 = getelementptr inbounds nuw i8, ptr %7, i64 32
  %24 = load ptr, ptr %23, align 8, !tbaa !16
  %25 = ptrtoint ptr %24 to i64
  %26 = ptrtoint ptr %21 to i64
  %27 = sub i64 %25, %26
  call void @_ZdlPvm(ptr noundef nonnull %21, i64 noundef %27) #30
  br label %_ZNSt6vectorIdSaIdEED2Ev.exit.i

_ZNSt6vectorIdSaIdEED2Ev.exit.i:                  ; preds = %22, %19
  %28 = getelementptr inbounds nuw i8, ptr %7, i64 8
  invoke void @_ZN6casadi13GenericSharedINS_12SharedObjectENS_20SharedObjectInternalEE10count_downEv(ptr noundef nonnull align 8 dereferenceable(8) %28)
          to label %_ZN6casadi6MatrixIdED2Ev.exit unwind label %29

29:                                               ; preds = %_ZNSt6vectorIdSaIdEED2Ev.exit.i
  %30 = landingpad { ptr, i32 }
          catch ptr null
  %31 = extractvalue { ptr, i32 } %30, 0
  call void @__clang_call_terminate(ptr %31) #29
  unreachable

_ZN6casadi6MatrixIdED2Ev.exit:                    ; preds = %_ZNSt6vectorIdSaIdEED2Ev.exit.i
  call void @llvm.lifetime.end.p0(i64 40, ptr nonnull %7) #31
  ret void

32:                                               ; preds = %_ZN6casadi6MatrixIdE3eyeEx.exit
  %33 = landingpad { ptr, i32 }
          cleanup
  call void @_ZN6casadi6MatrixIdED2Ev(ptr noundef nonnull align 8 dereferenceable(40) %7) #31
  call void @llvm.lifetime.end.p0(i64 40, ptr nonnull %7) #31
  br label %common.resume
}